target datalayout = "e-m:e-p270:32:32-p271:32:32-p272:64:64-i64:64-i128:128-f80:128-n8:16:32:64-S128"
target triple = "x86_64-pc-linux-gnu"

%"struct.pkpy::Str" = type { i32, i8, ptr, [16 x i8] }

; Function Attrs: mustprogress uwtable
define noundef i32 @_ZNK4pkpy3Str22_unicode_index_to_byteEi(ptr noundef nonnull align 8 dereferenceable(32) %0, i32 noundef %1) #4 align 2 {
  %3 = alloca i32, align 4
  %4 = alloca ptr, align 8
  %5 = alloca i32, align 4
  %6 = alloca i32, align 4
  store ptr %0, ptr %4, align 8
  store i32 %1, ptr %5, align 4
  %7 = load ptr, ptr %4, align 8
  %8 = getelementptr inbounds %"struct.pkpy::Str", ptr %7, i32 0, i32 1
  %9 = load i8, ptr %8, align 4
  %10 = trunc i8 %9 to i1
  br i1 %10, label %11, label %13

11:                                               ; preds = %2
  %12 = load i32, ptr %5, align 4
  store i32 %12, ptr %3, align 4
  br label %31

13:                                               ; preds = %2
  store i32 0, ptr %6, align 4
  br label %14

14:                                               ; preds = %17, %13
  %15 = load i32, ptr %5, align 4
  %16 = icmp sgt i32 %15, 0
  br i1 %16, label %17, label %29

17:                                               ; preds = %14
  %18 = getelementptr inbounds %"struct.pkpy::Str", ptr %7, i32 0, i32 2
  %19 = load ptr, ptr %18, align 8
  %20 = load i32, ptr %6, align 4
  %21 = sext i32 %20 to i64
  %22 = getelementptr inbounds i8, ptr %19, i64 %21
  %23 = load i8, ptr %22, align 1
  %24 = call noundef i32 @_ZN4pkpy7utf8lenEhb(i8 noundef zeroext %23, i1 noundef zeroext false)
  %25 = load i32, ptr %6, align 4
  %26 = add nsw i32 %25, %24
  store i32 %26, ptr %6, align 4
  %27 = load i32, ptr %5, align 4
  %28 = add nsw i32 %27, -1
  store i32 %28, ptr %5, align 4
  br label %14, !llvm.loop !22

29:                                               ; preds = %14
  %30 = load i32, ptr %6, align 4
  store i32 %30, ptr %3, align 4
  br label %31

31:                                               ; preds = %29, %11
  %32 = load i32, ptr %3, align 4
  ret i32 %32
}