; Function Attrs: mustprogress uwtable
define noundef i32 @_ZNK4pkpy3Str22_unicode_index_to_byteEi(ptr nocapture noundef nonnull readonly align 8 dereferenceable(32) %0, i32 noundef %1) local_unnamed_addr #3 align 2 {
  %3 = getelementptr inbounds i8, ptr %0, i64 4
  %4 = load i8, ptr %3, align 4
  %5 = trunc i8 %4 to i1
  br i1 %5, label %.loopexit, label %.preheader

.preheader:                                       ; preds = %2
  %6 = icmp sgt i32 %1, 0
  br i1 %6, label %.lr.ph, label %.loopexit

.lr.ph:                                           ; preds = %.preheader
  %7 = getelementptr inbounds i8, ptr %0, i64 8
  br label %8

8:                                                ; preds = %.lr.ph, %8
  %.010 = phi i32 [ 0, %.lr.ph ], [ %14, %8 ]
  %.079 = phi i32 [ %1, %.lr.ph ], [ %15, %8 ]
  %9 = load ptr, ptr %7, align 8
  %10 = zext nneg i32 %.010 to i64
  %11 = getelementptr inbounds i8, ptr %9, i64 %10
  %12 = load i8, ptr %11, align 1
  %13 = tail call noundef i32 @_ZN4pkpy7utf8lenEhb(i8 noundef zeroext %12, i1 noundef zeroext false)
  %14 = add nuw nsw i32 %13, %.010
  %15 = add nsw i32 %.079, -1
  %16 = icmp ugt i32 %.079, 1
  br i1 %16, label %8, label %.loopexit, !llvm.loop !26

.loopexit:                                        ; preds = %8, %.preheader, %2
  %.08 = phi i32 [ %1, %2 ], [ 0, %.preheader ], [ %14, %8 ]
  ret i32 %.08
}